; Function Attrs: mustprogress nofree norecurse nosync nounwind willreturn memory(none) uwtable
define dso_local { ptr, i64 } @_ZN4llvm6Triple23getObjectFormatTypeNameENS0_16ObjectFormatTypeE(i32 noundef %0) local_unnamed_addr #0 align 2 {
switch.lookup:
  %1 = sext i32 %0 to i64
  %switch.gep = getelementptr inbounds [9 x i64], ptr @switch.table._ZN4llvm6Triple15setObjectFormatENS0_16ObjectFormatTypeE.20, i64 0, i64 %1
  %switch.load = load i64, ptr %switch.gep, align 8
  %2 = sext i32 %0 to i64
  %switch.gep1 = getelementptr inbounds [9 x ptr], ptr @switch.table._ZN4llvm6Triple15setObjectFormatENS0_16ObjectFormatTypeE.21, i64 0, i64 %2
  %switch.load2 = load ptr, ptr %switch.gep1, align 8
  %.fca.0.insert = insertvalue { ptr, i64 } poison, ptr %switch.load2, 0
  %.fca.1.insert = insertvalue { ptr, i64 } %.fca.0.insert, i64 %switch.load, 1
  ret { ptr, i64 } %.fca.1.insert
}